; Function Attrs: mustprogress nofree nosync nounwind willreturn memory(read, inaccessiblemem: none) uwtable
define internal fastcc noundef i64 @_ZN5arrow12_GLOBAL__N_125StridedTensorCountNonZeroINS_10UInt64TypeEEElilRKNS_6TensorE(i32 noundef %dim_index, i64 noundef %offset, ptr nocapture noundef nonnull readonly align 8 dereferenceable(112) %tensor) unnamed_addr #14 {
entry:
  %shape_.i = getelementptr inbounds i8, ptr %tensor, i64 40
  %_M_finish.i.i = getelementptr inbounds i8, ptr %tensor, i64 48
  %0 = load ptr, ptr %_M_finish.i.i, align 8
  %1 = load ptr, ptr %shape_.i, align 8
  %sub.ptr.lhs.cast.i.i = ptrtoint ptr %0 to i64
  %sub.ptr.rhs.cast.i.i = ptrtoint ptr %1 to i64
  %sub.ptr.sub.i.i = sub i64 %sub.ptr.lhs.cast.i.i, %sub.ptr.rhs.cast.i.i
  %sub.ptr.div.i.i = lshr exact i64 %sub.ptr.sub.i.i, 3
  %conv.i = trunc i64 %sub.ptr.div.i.i to i32
  %sub = add nsw i32 %conv.i, -1
  %cmp = icmp eq i32 %sub, %dim_index
  %conv = sext i32 %dim_index to i64
  %add.ptr.i = getelementptr inbounds i64, ptr %1, i64 %conv
  %2 = load i64, ptr %add.ptr.i, align 8
  %cmp331 = icmp sgt i64 %2, 0
  br i1 %cmp, label %for.cond.preheader, label %for.cond14.preheader

for.cond14.preheader:                             ; preds = %entry
  br i1 %cmp331, label %for.body19.lr.ph, label %return

for.body19.lr.ph:                                 ; preds = %for.cond14.preheader
  %add = add nsw i32 %dim_index, 1
  %strides_.i24 = getelementptr inbounds i8, ptr %tensor, i64 64
  %3 = load ptr, ptr %strides_.i24, align 8
  %add.ptr.i25 = getelementptr inbounds i64, ptr %3, i64 %conv
  %4 = load i64, ptr %add.ptr.i25, align 8
  br label %for.body19

for.cond.preheader:                               ; preds = %entry
  br i1 %cmp331, label %for.body.lr.ph, label %return

for.body.lr.ph:                                   ; preds = %for.cond.preheader
  %data_.i = getelementptr inbounds i8, ptr %tensor, i64 24
  %5 = load ptr, ptr %data_.i, align 8
  %is_cpu_.i.i = getelementptr inbounds i8, ptr %5, i64 9
  %6 = load i8, ptr %is_cpu_.i.i, align 1
  %7 = and i8 %6, 1
  %tobool.not.i.i = icmp eq i8 %7, 0
  %data_.i.i = getelementptr inbounds i8, ptr %5, i64 16
  %8 = load ptr, ptr %data_.i.i, align 8
  %cond.i.i = select i1 %tobool.not.i.i, ptr null, ptr %8
  %add.ptr = getelementptr inbounds i8, ptr %cond.i.i, i64 %offset
  %strides_.i = getelementptr inbounds i8, ptr %tensor, i64 64
  %9 = load ptr, ptr %strides_.i, align 8
  %add.ptr.i21 = getelementptr inbounds i64, ptr %9, i64 %conv
  %10 = load i64, ptr %add.ptr.i21, align 8
  br label %for.body

for.body:                                         ; preds = %for.body.lr.ph, %for.body
  %i.033 = phi i64 [ 0, %for.body.lr.ph ], [ %inc11, %for.body ]
  %nnz.032 = phi i64 [ 0, %for.body.lr.ph ], [ %spec.select, %for.body ]
  %mul = mul nsw i64 %10, %i.033
  %add.ptr8 = getelementptr inbounds i8, ptr %add.ptr, i64 %mul
  %11 = load i64, ptr %add.ptr8, align 8
  %cmp9.not = icmp ne i64 %11, 0
  %inc = zext i1 %cmp9.not to i64
  %spec.select = add nuw nsw i64 %nnz.032, %inc
  %inc11 = add nuw nsw i64 %i.033, 1
  %exitcond36.not = icmp eq i64 %inc11, %2
  br i1 %exitcond36.not, label %return, label %for.body, !llvm.loop !195

for.body19:                                       ; preds = %for.body19.lr.ph, %for.body19
  %i13.030 = phi i64 [ 0, %for.body19.lr.ph ], [ %inc27, %for.body19 ]
  %offset.addr.029 = phi i64 [ %offset, %for.body19.lr.ph ], [ %add25, %for.body19 ]
  %nnz.228 = phi i64 [ 0, %for.body19.lr.ph ], [ %add21, %for.body19 ]
  %call20 = tail call fastcc noundef i64 @_ZN5arrow12_GLOBAL__N_125StridedTensorCountNonZeroINS_10UInt64TypeEEElilRKNS_6TensorE(i32 noundef %add, i64 noundef %offset.addr.029, ptr noundef nonnull align 8 dereferenceable(112) %tensor)
  %add21 = add nsw i64 %call20, %nnz.228
  %add25 = add nsw i64 %4, %offset.addr.029
  %inc27 = add nuw nsw i64 %i13.030, 1
  %exitcond.not = icmp eq i64 %inc27, %2
  br i1 %exitcond.not, label %return, label %for.body19, !llvm.loop !196

return:                                           ; preds = %for.body19, %for.body, %for.cond14.preheader, %for.cond.preheader
  %retval.0 = phi i64 [ 0, %for.cond.preheader ], [ 0, %for.cond14.preheader ], [ %spec.select, %for.body ], [ %add21, %for.body19 ]
  ret i64 %retval.0
}